target datalayout = "e-m:e-p270:32:32-p271:32:32-p272:64:64-i64:64-i128:128-f80:128-n8:16:32:64-S128"
target triple = "x86_64-pc-linux-gnu"

%class.anon = type { ptr }
%class.QBasicAtomicInteger = type { %"struct.std::atomic.0" }
%"struct.std::atomic.0" = type { %"struct.std::__atomic_base.1" }
%"struct.std::__atomic_base.1" = type { i32 }
%"class.QtPrivate::QSlotObjectBase" = type { %class.QAtomicInt, ptr }
%class.QAtomicInt = type { %class.QAtomicInteger }
%class.QAtomicInteger = type { %class.QBasicAtomicInteger }
%"class.QtPrivate::QFunctorSlotObject" = type { %"class.QtPrivate::QSlotObjectBase", %class.anon }

; Function Attrs: mustprogress nounwind null_pointer_is_valid sspstrong uwtable
define linkonce_odr void @_ZNSt13__atomic_baseIiEC2Ei(ptr noundef align 4 dereferenceable_or_null(4) %0, i32 noundef %1) unnamed_addr #8 comdat align 2 {
  %3 = alloca ptr, align 8
  %4 = alloca i32, align 4
  store ptr %0, ptr %3, align 8
  store i32 %1, ptr %4, align 4
  %5 = load ptr, ptr %3, align 8
  %6 = getelementptr inbounds nuw %"struct.std::__atomic_base.1", ptr %5, i32 0, i32 0
  %7 = load i32, ptr %4, align 4
  store i32 %7, ptr %6, align 4
  ret void
}

; Function Attrs: mustprogress nounwind null_pointer_is_valid sspstrong uwtable
define linkonce_odr void @_ZNSt6atomicIiEC2Ei(ptr noundef align 4 dereferenceable_or_null(4) %0, i32 noundef %1) unnamed_addr #8 comdat align 2 {
  %3 = alloca ptr, align 8
  %4 = alloca i32, align 4
  store ptr %0, ptr %3, align 8
  store i32 %1, ptr %4, align 4
  %5 = load ptr, ptr %3, align 8
  %6 = load i32, ptr %4, align 4
  call void @_ZNSt13__atomic_baseIiEC2Ei(ptr noundef align 4 dereferenceable_or_null(4) %5, i32 noundef %6) #19
  ret void
}

; Function Attrs: mustprogress nounwind null_pointer_is_valid sspstrong uwtable
define linkonce_odr void @_ZN19QBasicAtomicIntegerIiEC2Ei(ptr noundef align 4 dereferenceable_or_null(4) %0, i32 noundef %1) unnamed_addr #8 comdat align 2 {
  %3 = alloca ptr, align 8
  %4 = alloca i32, align 4
  store ptr %0, ptr %3, align 8
  store i32 %1, ptr %4, align 4
  %5 = load ptr, ptr %3, align 8
  %6 = getelementptr inbounds nuw %class.QBasicAtomicInteger, ptr %5, i32 0, i32 0
  %7 = load i32, ptr %4, align 4
  call void @_ZNSt6atomicIiEC2Ei(ptr noundef align 4 dereferenceable_or_null(4) %6, i32 noundef %7) #19
  ret void
}

; Function Attrs: mustprogress nounwind null_pointer_is_valid sspstrong uwtable
define linkonce_odr void @_ZN14QAtomicIntegerIiEC2Ei(ptr noundef align 4 dereferenceable_or_null(4) %0, i32 noundef %1) unnamed_addr #8 comdat align 2 {
  %3 = alloca ptr, align 8
  %4 = alloca i32, align 4
  store ptr %0, ptr %3, align 8
  store i32 %1, ptr %4, align 4
  %5 = load ptr, ptr %3, align 8
  %6 = load i32, ptr %4, align 4
  call void @_ZN19QBasicAtomicIntegerIiEC2Ei(ptr noundef align 4 dereferenceable_or_null(4) %5, i32 noundef %6) #19
  ret void
}

; Function Attrs: mustprogress nounwind null_pointer_is_valid sspstrong uwtable
define linkonce_odr void @_ZN10QAtomicIntC2Ei(ptr noundef align 4 dereferenceable_or_null(4) %0, i32 noundef %1) unnamed_addr #8 comdat align 2 {
  %3 = alloca ptr, align 8
  %4 = alloca i32, align 4
  store ptr %0, ptr %3, align 8
  store i32 %1, ptr %4, align 4
  %5 = load ptr, ptr %3, align 8
  %6 = load i32, ptr %4, align 4
  call void @_ZN14QAtomicIntegerIiEC2Ei(ptr noundef align 4 dereferenceable_or_null(4) %5, i32 noundef %6) #19
  ret void
}

; Function Attrs: mustprogress nounwind null_pointer_is_valid sspstrong uwtable
define linkonce_odr void @_ZN9QtPrivate15QSlotObjectBaseC2EPFviPS0_P7QObjectPPvPbE(ptr noundef align 8 dereferenceable_or_null(16) %0, ptr noundef %1) unnamed_addr #8 comdat align 2 {
  %3 = alloca ptr, align 8
  %4 = alloca ptr, align 8
  store ptr %0, ptr %3, align 8
  store ptr %1, ptr %4, align 8
  %5 = load ptr, ptr %3, align 8
  %6 = getelementptr inbounds nuw %"class.QtPrivate::QSlotObjectBase", ptr %5, i32 0, i32 0
  call void @_ZN10QAtomicIntC2Ei(ptr noundef align 4 dereferenceable_or_null(4) %6, i32 noundef 1) #19
  %7 = getelementptr inbounds nuw %"class.QtPrivate::QSlotObjectBase", ptr %5, i32 0, i32 1
  %8 = load ptr, ptr %4, align 8
  store ptr %8, ptr %7, align 8
  ret void
}

; Function Attrs: mustprogress nounwind null_pointer_is_valid sspstrong uwtable
define internal void @"_ZN9QtPrivate18QFunctorSlotObjectIZN24GLibMainloopOnQEventLoop5setupEP7QObjectE3$_0Li0ENS_4ListIJEEEvEC2ES4_"(ptr noundef align 8 dereferenceable_or_null(24) %0, ptr %1) unnamed_addr #8 align 2 {
  %3 = alloca %class.anon, align 8
  %4 = alloca ptr, align 8
  %5 = getelementptr inbounds nuw %class.anon, ptr %3, i32 0, i32 0
  store ptr %1, ptr %5, align 8
  store ptr %0, ptr %4, align 8
  %6 = load ptr, ptr %4, align 8
  call void @_ZN9QtPrivate15QSlotObjectBaseC2EPFviPS0_P7QObjectPPvPbE(ptr noundef align 8 dereferenceable_or_null(16) %6, ptr noundef @"_ZN9QtPrivate18QFunctorSlotObjectIZN24GLibMainloopOnQEventLoop5setupEP7QObjectE3$_0Li0ENS_4ListIJEEEvE4implEiPNS_15QSlotObjectBaseES3_PPvPb")
  %7 = getelementptr inbounds nuw %"class.QtPrivate::QFunctorSlotObject", ptr %6, i32 0, i32 1
  call void @llvm.memcpy.p0.p0.i64(ptr align 8 %7, ptr align 8 %3, i64 8, i1 false)
  ret void
}

; Function Attrs: inlinehint mustprogress null_pointer_is_valid sspstrong uwtable
define internal void @"_ZN6QTimer10singleShotIiZN24GLibMainloopOnQEventLoop5setupEP7QObjectE3$_0EENSt9enable_ifIXaantsr9QtPrivate15FunctionPointerIT0_EE25IsPointerToMemberFunctionntsr3std7is_sameIPKcS6_EE5valueEvE4typeET_N2Qt9TimerTypeEPKS2_S6_"(i32 noundef %0, i32 noundef %1, ptr noundef %2, ptr %3) #12 align 2 personality ptr @__gxx_personality_v0 {
  %5 = alloca %class.anon, align 8
  %6 = alloca i32, align 4
  %7 = alloca i32, align 4
  %8 = alloca ptr, align 8
  %9 = alloca %class.anon, align 8
  %10 = alloca ptr, align 8
  %11 = alloca i32, align 4
  %12 = getelementptr inbounds nuw %class.anon, ptr %5, i32 0, i32 0
  store ptr %3, ptr %12, align 8
  store i32 %0, ptr %6, align 4
  store i32 %1, ptr %7, align 4
  store ptr %2, ptr %8, align 8
  %13 = load i32, ptr %6, align 4
  %14 = load i32, ptr %7, align 4
  %15 = load ptr, ptr %8, align 8
  %16 = call noalias noundef ptr @_Znwm(i64 noundef 24) #24
  call void @llvm.memcpy.p0.p0.i64(ptr align 8 %9, ptr align 8 %5, i64 8, i1 false)
  %17 = getelementptr inbounds nuw %class.anon, ptr %9, i32 0, i32 0
  %18 = load ptr, ptr %17, align 8
  invoke void @"_ZN9QtPrivate18QFunctorSlotObjectIZN24GLibMainloopOnQEventLoop5setupEP7QObjectE3$_0Li0ENS_4ListIJEEEvEC2ES4_"(ptr noundef align 8 dereferenceable_or_null(24) %16, ptr %18)
          to label %19 unwind label %20

19:                                               ; preds = %4
  call void @_ZN6QTimer14singleShotImplEiN2Qt9TimerTypeEPK7QObjectPN9QtPrivate15QSlotObjectBaseE(i32 noundef %13, i32 noundef %14, ptr noundef %15, ptr noundef %16)
  ret void

20:                                               ; preds = %4
  %21 = landingpad { ptr, i32 }
          cleanup
  %22 = extractvalue { ptr, i32 } %21, 0
  store ptr %22, ptr %10, align 8
  %23 = extractvalue { ptr, i32 } %21, 1
  store i32 %23, ptr %11, align 4
  call void @_ZdlPvm(ptr noundef %16, i64 noundef 24) #23
  br label %24

24:                                               ; preds = %20
  %25 = load ptr, ptr %10, align 8
  %26 = load i32, ptr %11, align 4
  %27 = insertvalue { ptr, i32 } poison, ptr %25, 0
  %28 = insertvalue { ptr, i32 } %27, i32 %26, 1
  resume { ptr, i32 } %28
}

; Function Attrs: mustprogress nounwind null_pointer_is_valid sspstrong uwtable
define linkonce_odr noundef i32 @_ZN6QTimer14defaultTypeForEi(i32 noundef %0) #8 comdat align 2 {
  %2 = alloca i32, align 4
  store i32 %0, ptr %2, align 4
  %3 = load i32, ptr %2, align 4
  %4 = icmp sge i32 %3, 2000
  %5 = select i1 %4, i32 1, i32 0
  ret i32 %5
}

; Function Attrs: inlinehint mustprogress null_pointer_is_valid sspstrong uwtable
define internal void @"_ZN6QTimer10singleShotIiZN24GLibMainloopOnQEventLoop5setupEP7QObjectE3$_0EENSt9enable_ifIXaantsr9QtPrivate15FunctionPointerIT0_EE25IsPointerToMemberFunctionntsr3std7is_sameIPKcS6_EE5valueEvE4typeET_S6_"(i32 noundef %0, ptr %1) #12 align 2 {
  %3 = alloca %class.anon, align 8
  %4 = alloca i32, align 4
  %5 = alloca %class.anon, align 8
  %6 = getelementptr inbounds nuw %class.anon, ptr %3, i32 0, i32 0
  store ptr %1, ptr %6, align 8
  store i32 %0, ptr %4, align 4
  %7 = load i32, ptr %4, align 4
  %8 = load i32, ptr %4, align 4
  %9 = call noundef i32 @_ZN6QTimer14defaultTypeForEi(i32 noundef %8) #19
  call void @llvm.memcpy.p0.p0.i64(ptr align 8 %5, ptr align 8 %3, i64 8, i1 false)
  %10 = getelementptr inbounds nuw %class.anon, ptr %5, i32 0, i32 0
  %11 = load ptr, ptr %10, align 8
  call void @"_ZN6QTimer10singleShotIiZN24GLibMainloopOnQEventLoop5setupEP7QObjectE3$_0EENSt9enable_ifIXaantsr9QtPrivate15FunctionPointerIT0_EE25IsPointerToMemberFunctionntsr3std7is_sameIPKcS6_EE5valueEvE4typeET_N2Qt9TimerTypeEPKS2_S6_"(i32 noundef %7, i32 noundef %9, ptr noundef null, ptr %11)
  ret void
}

; Function Attrs: mustprogress null_pointer_is_valid sspstrong uwtable
define void @_ZN24GLibMainloopOnQEventLoop5setupEP7QObject(ptr noundef %0) #0 align 2 {
  %2 = alloca ptr, align 8
  %3 = alloca %class.anon, align 8
  store ptr %0, ptr %2, align 8
  %4 = getelementptr inbounds nuw %class.anon, ptr %3, i32 0, i32 0
  %5 = load ptr, ptr %2, align 8
  store ptr %5, ptr %4, align 8
  %6 = getelementptr inbounds nuw %class.anon, ptr %3, i32 0, i32 0
  %7 = load ptr, ptr %6, align 8
  call void @"_ZN6QTimer10singleShotIiZN24GLibMainloopOnQEventLoop5setupEP7QObjectE3$_0EENSt9enable_ifIXaantsr9QtPrivate15FunctionPointerIT0_EE25IsPointerToMemberFunctionntsr3std7is_sameIPKcS6_EE5valueEvE4typeET_S6_"(i32 noundef 0, ptr %7)
  ret void
}