; Function Attrs: mustprogress null_pointer_is_valid sspstrong uwtable
define void @_ZN24GLibMainloopOnQEventLoop5setupEP7QObject(ptr noundef %0) local_unnamed_addr #0 align 2 personality ptr @__gxx_personality_v0 {
  %2 = tail call noalias noundef dereferenceable_or_null(24) ptr @_Znwm(i64 noundef 24) #18
  store i32 1, ptr %2, align 4
  %3 = getelementptr inbounds nuw i8, ptr %2, i64 8
  store ptr @"_ZN9QtPrivate18QFunctorSlotObjectIZN24GLibMainloopOnQEventLoop5setupEP7QObjectE3$_0Li0ENS_4ListIJEEEvE4implEiPNS_15QSlotObjectBaseES3_PPvPb", ptr %3, align 8
  %4 = getelementptr inbounds nuw i8, ptr %2, i64 16
  store ptr %0, ptr %4, align 8
  tail call void @_ZN6QTimer14singleShotImplEiN2Qt9TimerTypeEPK7QObjectPN9QtPrivate15QSlotObjectBaseE(i32 noundef 0, i32 noundef 0, ptr noundef null, ptr noundef %2)
  ret void
}